; Function Attrs: noinline norecurse nounwind uwtable
define internal void @_ZNK5faiss17EnumeratedVectors12decode_multiEmPKmPf.omp_outlined(ptr noalias noundef readonly captures(none) %0, ptr noalias readnone captures(none) %1, ptr noundef nonnull readonly align 8 captures(none) dereferenceable(8) %2, ptr noundef %3, ptr noundef nonnull readonly align 8 captures(none) dereferenceable(8) %4, ptr noundef nonnull readonly align 8 captures(none) dereferenceable(8) %5) #14 personality ptr @__gxx_personality_v0 {
  %7 = alloca i32, align 4
  %8 = alloca i32, align 4
  %9 = alloca i32, align 4
  %10 = alloca i32, align 4
  %11 = load i64, ptr %2, align 8, !tbaa !44
  %.not = icmp eq i64 %11, 0
  %.pre = load i32, ptr %0, align 4, !tbaa !45
  br i1 %.not, label %35, label %12

12:                                               ; preds = %6
  %13 = trunc i64 %11 to i32
  %14 = add nsw i32 %13, -1
  call void @llvm.lifetime.start.p0(i64 4, ptr nonnull %7) #15
  store i32 0, ptr %7, align 4, !tbaa !45
  call void @llvm.lifetime.start.p0(i64 4, ptr nonnull %8) #15
  store i32 %14, ptr %8, align 4, !tbaa !45
  call void @llvm.lifetime.start.p0(i64 4, ptr nonnull %9) #15
  store i32 1, ptr %9, align 4, !tbaa !45
  call void @llvm.lifetime.start.p0(i64 4, ptr nonnull %10) #15
  store i32 0, ptr %10, align 4, !tbaa !45
  call void @__kmpc_for_static_init_4(ptr nonnull @1, i32 %.pre, i32 34, ptr nonnull %10, ptr nonnull %7, ptr nonnull %8, ptr nonnull %9, i32 1, i32 1)
  %15 = load i32, ptr %8, align 4, !tbaa !45
  %16 = call i32 @llvm.smin.i32(i32 %15, i32 %14)
  store i32 %16, ptr %8, align 4, !tbaa !45
  %17 = load i32, ptr %7, align 4, !tbaa !45
  %.not1617 = icmp sgt i32 %17, %16
  br i1 %.not1617, label %._crit_edge, label %.lr.ph

.lr.ph:                                           ; preds = %12
  %18 = getelementptr inbounds nuw i8, ptr %3, i64 16
  %19 = sext i32 %17 to i64
  br label %20

20:                                               ; preds = %.lr.ph, %32
  %indvars.iv = phi i64 [ %19, %.lr.ph ], [ %indvars.iv.next, %32 ]
  %21 = load ptr, ptr %4, align 8, !tbaa !99
  %22 = getelementptr inbounds i64, ptr %21, i64 %indvars.iv
  %23 = load i64, ptr %22, align 8, !tbaa !44
  %24 = load ptr, ptr %5, align 8, !tbaa !98
  %25 = load i32, ptr %18, align 8, !tbaa !30
  %26 = sext i32 %25 to i64
  %27 = mul nsw i64 %indvars.iv, %26
  %28 = getelementptr inbounds float, ptr %24, i64 %27
  %29 = load ptr, ptr %3, align 8, !tbaa !35
  %30 = getelementptr inbounds nuw i8, ptr %29, i64 8
  %31 = load ptr, ptr %30, align 8
  invoke void %31(ptr noundef nonnull align 8 dereferenceable(20) %3, i64 noundef %23, ptr noundef %28)
          to label %32 unwind label %36

32:                                               ; preds = %20
  %indvars.iv.next = add nsw i64 %indvars.iv, 1
  %33 = load i32, ptr %8, align 4, !tbaa !45
  %34 = sext i32 %33 to i64
  %.not16.not = icmp slt i64 %indvars.iv, %34
  br i1 %.not16.not, label %20, label %._crit_edge

._crit_edge:                                      ; preds = %32, %12
  call void @__kmpc_for_static_fini(ptr nonnull @1, i32 %.pre)
  call void @llvm.lifetime.end.p0(i64 4, ptr nonnull %10) #15
  call void @llvm.lifetime.end.p0(i64 4, ptr nonnull %9) #15
  call void @llvm.lifetime.end.p0(i64 4, ptr nonnull %8) #15
  call void @llvm.lifetime.end.p0(i64 4, ptr nonnull %7) #15
  br label %35

35:                                               ; preds = %._crit_edge, %6
  call void @__kmpc_barrier(ptr nonnull @2, i32 %.pre)
  ret void

36:                                               ; preds = %20
  %37 = landingpad { ptr, i32 }
          catch ptr null
  %38 = extractvalue { ptr, i32 } %37, 0
  call void @__clang_call_terminate(ptr %38) #28
  unreachable
}